target datalayout = "e-m:e-p270:32:32-p271:32:32-p272:64:64-i64:64-i128:128-f80:128-n8:16:32:64-S128"
target triple = "x86_64-pc-linux-gnu"

%struct.mbedtls_ecp_group = type { i32, %struct.mbedtls_mpi, %struct.mbedtls_mpi, %struct.mbedtls_mpi, %struct.mbedtls_ecp_point, %struct.mbedtls_mpi, i64, i64, i32, ptr, ptr, ptr, ptr, ptr, i64 }
%struct.mbedtls_ecp_point = type { %struct.mbedtls_mpi, %struct.mbedtls_mpi, %struct.mbedtls_mpi }
%struct.mbedtls_mpi = type { ptr, i16, i16 }

; Function Attrs: nounwind uwtable
define internal i32 @ecjpake_zkp_write(i32 noundef %0, ptr noundef %1, i32 noundef %2, ptr noundef %3, ptr noundef %4, ptr noundef %5, ptr noundef %6, ptr noundef %7, ptr noundef %8, ptr noundef %9, ptr noundef %10) #0 {
  %12 = alloca i32, align 4
  %13 = alloca i32, align 4
  %14 = alloca ptr, align 8
  %15 = alloca i32, align 4
  %16 = alloca ptr, align 8
  %17 = alloca ptr, align 8
  %18 = alloca ptr, align 8
  %19 = alloca ptr, align 8
  %20 = alloca ptr, align 8
  %21 = alloca ptr, align 8
  %22 = alloca ptr, align 8
  %23 = alloca ptr, align 8
  %24 = alloca i32, align 4
  %25 = alloca %struct.mbedtls_ecp_point, align 8
  %26 = alloca %struct.mbedtls_mpi, align 8
  %27 = alloca %struct.mbedtls_mpi, align 8
  %28 = alloca i64, align 8
  %29 = alloca i32, align 4
  store i32 %0, ptr %13, align 4, !tbaa !19
  store ptr %1, ptr %14, align 8, !tbaa !26
  store i32 %2, ptr %15, align 4, !tbaa !19
  store ptr %3, ptr %16, align 8, !tbaa !28
  store ptr %4, ptr %17, align 8, !tbaa !31
  store ptr %5, ptr %18, align 8, !tbaa !28
  store ptr %6, ptr %19, align 8, !tbaa !20
  store ptr %7, ptr %20, align 8, !tbaa !34
  store ptr %8, ptr %21, align 8, !tbaa !20
  store ptr %9, ptr %22, align 8, !tbaa !30
  store ptr %10, ptr %23, align 8, !tbaa !30
  call void @llvm.lifetime.start.p0(i64 4, ptr %24) #9
  store i32 -110, ptr %24, align 4, !tbaa !19
  call void @llvm.lifetime.start.p0(i64 48, ptr %25) #9
  call void @llvm.lifetime.start.p0(i64 16, ptr %26) #9
  call void @llvm.lifetime.start.p0(i64 16, ptr %27) #9
  call void @llvm.lifetime.start.p0(i64 8, ptr %28) #9
  %30 = load ptr, ptr %21, align 8, !tbaa !20
  %31 = load ptr, ptr %20, align 8, !tbaa !34
  %32 = load ptr, ptr %31, align 8, !tbaa !20
  %33 = icmp ult ptr %30, %32
  br i1 %33, label %34, label %35

34:                                               ; preds = %11
  store i32 -20224, ptr %12, align 4
  store i32 1, ptr %29, align 4
  br label %147

35:                                               ; preds = %11
  call void @mbedtls_ecp_point_init(ptr noundef %25)
  call void @mbedtls_mpi_init(ptr noundef %26)
  call void @mbedtls_mpi_init(ptr noundef %27)
  br label %36

36:                                               ; preds = %35
  %37 = load ptr, ptr %14, align 8, !tbaa !26
  %38 = load ptr, ptr %16, align 8, !tbaa !28
  %39 = load ptr, ptr %22, align 8, !tbaa !30
  %40 = load ptr, ptr %23, align 8, !tbaa !30
  %41 = call i32 @mbedtls_ecp_gen_keypair_base(ptr noundef %37, ptr noundef %38, ptr noundef %26, ptr noundef %25, ptr noundef %39, ptr noundef %40)
  store i32 %41, ptr %24, align 4, !tbaa !19
  %42 = icmp ne i32 %41, 0
  br i1 %42, label %43, label %44

43:                                               ; preds = %36
  br label %145

44:                                               ; preds = %36
  br label %45

45:                                               ; preds = %44
  br label %46

46:                                               ; preds = %45
  br label %47

47:                                               ; preds = %46
  %48 = load i32, ptr %13, align 4, !tbaa !19
  %49 = load ptr, ptr %14, align 8, !tbaa !26
  %50 = load i32, ptr %15, align 4, !tbaa !19
  %51 = load ptr, ptr %16, align 8, !tbaa !28
  %52 = load ptr, ptr %18, align 8, !tbaa !28
  %53 = load ptr, ptr %19, align 8, !tbaa !20
  %54 = call i32 @ecjpake_hash(i32 noundef %48, ptr noundef %49, i32 noundef %50, ptr noundef %51, ptr noundef %25, ptr noundef %52, ptr noundef %53, ptr noundef %27)
  store i32 %54, ptr %24, align 4, !tbaa !19
  %55 = icmp ne i32 %54, 0
  br i1 %55, label %56, label %57

56:                                               ; preds = %47
  br label %145

57:                                               ; preds = %47
  br label %58

58:                                               ; preds = %57
  br label %59

59:                                               ; preds = %58
  br label %60

60:                                               ; preds = %59
  %61 = load ptr, ptr %17, align 8, !tbaa !31
  %62 = call i32 @mbedtls_mpi_mul_mpi(ptr noundef %27, ptr noundef %27, ptr noundef %61)
  store i32 %62, ptr %24, align 4, !tbaa !19
  %63 = icmp ne i32 %62, 0
  br i1 %63, label %64, label %65

64:                                               ; preds = %60
  br label %145

65:                                               ; preds = %60
  br label %66

66:                                               ; preds = %65
  br label %67

67:                                               ; preds = %66
  br label %68

68:                                               ; preds = %67
  %69 = call i32 @mbedtls_mpi_sub_mpi(ptr noundef %27, ptr noundef %26, ptr noundef %27)
  store i32 %69, ptr %24, align 4, !tbaa !19
  %70 = icmp ne i32 %69, 0
  br i1 %70, label %71, label %72

71:                                               ; preds = %68
  br label %145

72:                                               ; preds = %68
  br label %73

73:                                               ; preds = %72
  br label %74

74:                                               ; preds = %73
  br label %75

75:                                               ; preds = %74
  %76 = load ptr, ptr %14, align 8, !tbaa !26
  %77 = getelementptr inbounds nuw %struct.mbedtls_ecp_group, ptr %76, i32 0, i32 5
  %78 = call i32 @mbedtls_mpi_mod_mpi(ptr noundef %27, ptr noundef %27, ptr noundef %77)
  store i32 %78, ptr %24, align 4, !tbaa !19
  %79 = icmp ne i32 %78, 0
  br i1 %79, label %80, label %81

80:                                               ; preds = %75
  br label %145

81:                                               ; preds = %75
  br label %82

82:                                               ; preds = %81
  br label %83

83:                                               ; preds = %82
  br label %84

84:                                               ; preds = %83
  %85 = load ptr, ptr %14, align 8, !tbaa !26
  %86 = load i32, ptr %15, align 4, !tbaa !19
  %87 = load ptr, ptr %20, align 8, !tbaa !34
  %88 = load ptr, ptr %87, align 8, !tbaa !20
  %89 = load ptr, ptr %21, align 8, !tbaa !20
  %90 = load ptr, ptr %20, align 8, !tbaa !34
  %91 = load ptr, ptr %90, align 8, !tbaa !20
  %92 = ptrtoint ptr %89 to i64
  %93 = ptrtoint ptr %91 to i64
  %94 = sub i64 %92, %93
  %95 = call i32 @mbedtls_ecp_tls_write_point(ptr noundef %85, ptr noundef %25, i32 noundef %86, ptr noundef %28, ptr noundef %88, i64 noundef %94)
  store i32 %95, ptr %24, align 4, !tbaa !19
  %96 = icmp ne i32 %95, 0
  br i1 %96, label %97, label %98

97:                                               ; preds = %84
  br label %145

98:                                               ; preds = %84
  br label %99

99:                                               ; preds = %98
  br label %100

100:                                              ; preds = %99
  %101 = load i64, ptr %28, align 8, !tbaa !22
  %102 = load ptr, ptr %20, align 8, !tbaa !34
  %103 = load ptr, ptr %102, align 8, !tbaa !20
  %104 = getelementptr inbounds nuw i8, ptr %103, i64 %101
  store ptr %104, ptr %102, align 8, !tbaa !20
  %105 = call i64 @mbedtls_mpi_size(ptr noundef %27)
  store i64 %105, ptr %28, align 8, !tbaa !22
  %106 = load ptr, ptr %21, align 8, !tbaa !20
  %107 = load ptr, ptr %20, align 8, !tbaa !34
  %108 = load ptr, ptr %107, align 8, !tbaa !20
  %109 = icmp ult ptr %106, %108
  br i1 %109, label %123, label %110

110:                                              ; preds = %100
  %111 = load ptr, ptr %21, align 8, !tbaa !20
  %112 = load ptr, ptr %20, align 8, !tbaa !34
  %113 = load ptr, ptr %112, align 8, !tbaa !20
  %114 = ptrtoint ptr %111 to i64
  %115 = ptrtoint ptr %113 to i64
  %116 = sub i64 %114, %115
  %117 = load i64, ptr %28, align 8, !tbaa !22
  %118 = add i64 1, %117
  %119 = icmp ult i64 %116, %118
  br i1 %119, label %123, label %120

120:                                              ; preds = %110
  %121 = load i64, ptr %28, align 8, !tbaa !22
  %122 = icmp ugt i64 %121, 255
  br i1 %122, label %123, label %124

123:                                              ; preds = %120, %110, %100
  store i32 -20224, ptr %24, align 4, !tbaa !19
  br label %145

124:                                              ; preds = %120
  %125 = load i64, ptr %28, align 8, !tbaa !22
  %126 = and i64 %125, 255
  %127 = trunc i64 %126 to i8
  %128 = load ptr, ptr %20, align 8, !tbaa !34
  %129 = load ptr, ptr %128, align 8, !tbaa !20
  %130 = getelementptr inbounds nuw i8, ptr %129, i32 1
  store ptr %130, ptr %128, align 8, !tbaa !20
  store i8 %127, ptr %129, align 1, !tbaa !38
  br label %131

131:                                              ; preds = %124
  %132 = load ptr, ptr %20, align 8, !tbaa !34
  %133 = load ptr, ptr %132, align 8, !tbaa !20
  %134 = load i64, ptr %28, align 8, !tbaa !22
  %135 = call i32 @mbedtls_mpi_write_binary(ptr noundef %27, ptr noundef %133, i64 noundef %134)
  store i32 %135, ptr %24, align 4, !tbaa !19
  %136 = icmp ne i32 %135, 0
  br i1 %136, label %137, label %138

137:                                              ; preds = %131
  br label %145

138:                                              ; preds = %131
  br label %139

139:                                              ; preds = %138
  br label %140

140:                                              ; preds = %139
  %141 = load i64, ptr %28, align 8, !tbaa !22
  %142 = load ptr, ptr %20, align 8, !tbaa !34
  %143 = load ptr, ptr %142, align 8, !tbaa !20
  %144 = getelementptr inbounds nuw i8, ptr %143, i64 %141
  store ptr %144, ptr %142, align 8, !tbaa !20
  br label %145

145:                                              ; preds = %140, %137, %123, %97, %80, %71, %64, %56, %43
  call void @mbedtls_ecp_point_free(ptr noundef %25)
  call void @mbedtls_mpi_free(ptr noundef %26)
  call void @mbedtls_mpi_free(ptr noundef %27)
  %146 = load i32, ptr %24, align 4, !tbaa !19
  store i32 %146, ptr %12, align 4
  store i32 1, ptr %29, align 4
  br label %147

147:                                              ; preds = %145, %34
  call void @llvm.lifetime.end.p0(i64 8, ptr %28) #9
  call void @llvm.lifetime.end.p0(i64 16, ptr %27) #9
  call void @llvm.lifetime.end.p0(i64 16, ptr %26) #9
  call void @llvm.lifetime.end.p0(i64 48, ptr %25) #9
  call void @llvm.lifetime.end.p0(i64 4, ptr %24) #9
  %148 = load i32, ptr %12, align 4
  ret i32 %148
}