; Function Attrs: nounwind uwtable
define internal fastcc i32 @ecjpake_zkp_write(i32 noundef %0, ptr noundef %1, i32 noundef %2, ptr noundef %3, ptr noundef %4, ptr noundef %5, ptr noundef readonly captures(none) %6, ptr noundef nonnull captures(none) %7, ptr noundef %8, ptr noundef %9, ptr noundef %10) unnamed_addr #0 {
  %12 = alloca %struct.mbedtls_ecp_point, align 8
  %13 = alloca %struct.mbedtls_mpi, align 8
  %14 = alloca %struct.mbedtls_mpi, align 8
  %15 = alloca i64, align 8
  call void @llvm.lifetime.start.p0(i64 48, ptr nonnull %12) #15
  call void @llvm.lifetime.start.p0(i64 16, ptr nonnull %13) #15
  call void @llvm.lifetime.start.p0(i64 16, ptr nonnull %14) #15
  call void @llvm.lifetime.start.p0(i64 8, ptr nonnull %15) #15
  %16 = load ptr, ptr %7, align 8, !tbaa !20
  %17 = icmp ult ptr %8, %16
  br i1 %17, label %59, label %18

18:                                               ; preds = %11
  call void @mbedtls_ecp_point_init(ptr noundef nonnull %12) #15
  call void @mbedtls_mpi_init(ptr noundef nonnull %13) #15
  call void @mbedtls_mpi_init(ptr noundef nonnull %14) #15
  %19 = call i32 @mbedtls_ecp_gen_keypair_base(ptr noundef %1, ptr noundef %3, ptr noundef nonnull %13, ptr noundef nonnull %12, ptr noundef %9, ptr noundef %10) #15
  %.not = icmp eq i32 %19, 0
  br i1 %.not, label %20, label %58

20:                                               ; preds = %18
  %21 = call fastcc i32 @ecjpake_hash(i32 noundef %0, ptr noundef %1, i32 noundef %2, ptr noundef %3, ptr noundef %12, ptr noundef %5, ptr noundef %6, ptr noundef %14)
  %.not40 = icmp eq i32 %21, 0
  br i1 %.not40, label %22, label %58

22:                                               ; preds = %20
  %23 = call i32 @mbedtls_mpi_mul_mpi(ptr noundef nonnull %14, ptr noundef nonnull %14, ptr noundef %4) #15
  %.not41 = icmp eq i32 %23, 0
  br i1 %.not41, label %24, label %58

24:                                               ; preds = %22
  %25 = call i32 @mbedtls_mpi_sub_mpi(ptr noundef nonnull %14, ptr noundef nonnull %13, ptr noundef nonnull %14) #15
  %.not42 = icmp eq i32 %25, 0
  br i1 %.not42, label %26, label %58

26:                                               ; preds = %24
  %27 = getelementptr inbounds nuw i8, ptr %1, i64 104
  %28 = call i32 @mbedtls_mpi_mod_mpi(ptr noundef nonnull %14, ptr noundef nonnull %14, ptr noundef nonnull %27) #15
  %.not43 = icmp eq i32 %28, 0
  br i1 %.not43, label %29, label %58

29:                                               ; preds = %26
  %30 = load ptr, ptr %7, align 8, !tbaa !20
  %31 = ptrtoint ptr %8 to i64
  %32 = ptrtoint ptr %30 to i64
  %33 = sub i64 %31, %32
  %34 = call i32 @mbedtls_ecp_tls_write_point(ptr noundef nonnull %1, ptr noundef nonnull %12, i32 noundef %2, ptr noundef nonnull %15, ptr noundef %30, i64 noundef %33) #15
  %.not44 = icmp eq i32 %34, 0
  br i1 %.not44, label %35, label %58

35:                                               ; preds = %29
  %36 = load i64, ptr %15, align 8, !tbaa !22
  %37 = load ptr, ptr %7, align 8, !tbaa !20
  %38 = getelementptr inbounds nuw i8, ptr %37, i64 %36
  store ptr %38, ptr %7, align 8, !tbaa !20
  %39 = call i64 @mbedtls_mpi_size(ptr noundef nonnull %14) #15
  store i64 %39, ptr %15, align 8, !tbaa !22
  %40 = load ptr, ptr %7, align 8, !tbaa !20
  %41 = icmp ult ptr %8, %40
  br i1 %41, label %58, label %42

42:                                               ; preds = %35
  %43 = ptrtoint ptr %40 to i64
  %44 = sub i64 %31, %43
  %45 = add i64 %39, 1
  %46 = icmp ult i64 %44, %45
  %47 = icmp ugt i64 %39, 255
  %or.cond = or i1 %47, %46
  br i1 %or.cond, label %58, label %48

48:                                               ; preds = %42
  %49 = trunc nuw i64 %39 to i8
  %50 = getelementptr inbounds nuw i8, ptr %40, i64 1
  store ptr %50, ptr %7, align 8, !tbaa !20
  store i8 %49, ptr %40, align 1, !tbaa !24
  %51 = load ptr, ptr %7, align 8, !tbaa !20
  %52 = load i64, ptr %15, align 8, !tbaa !22
  %53 = call i32 @mbedtls_mpi_write_binary(ptr noundef nonnull %14, ptr noundef %51, i64 noundef %52) #15
  %.not45 = icmp eq i32 %53, 0
  br i1 %.not45, label %54, label %58

54:                                               ; preds = %48
  %55 = load i64, ptr %15, align 8, !tbaa !22
  %56 = load ptr, ptr %7, align 8, !tbaa !20
  %57 = getelementptr inbounds nuw i8, ptr %56, i64 %55
  store ptr %57, ptr %7, align 8, !tbaa !20
  br label %58

58:                                               ; preds = %35, %42, %48, %29, %26, %24, %22, %20, %18, %54
  %.0 = phi i32 [ %19, %18 ], [ %21, %20 ], [ %23, %22 ], [ %25, %24 ], [ %28, %26 ], [ %34, %29 ], [ %53, %48 ], [ 0, %54 ], [ -20224, %42 ], [ -20224, %35 ]
  call void @mbedtls_ecp_point_free(ptr noundef nonnull %12) #15
  call void @mbedtls_mpi_free(ptr noundef nonnull %13) #15
  call void @mbedtls_mpi_free(ptr noundef nonnull %14) #15
  br label %59

59:                                               ; preds = %11, %58
  %.029 = phi i32 [ %.0, %58 ], [ -20224, %11 ]
  call void @llvm.lifetime.end.p0(i64 8, ptr nonnull %15) #15
  call void @llvm.lifetime.end.p0(i64 16, ptr nonnull %14) #15
  call void @llvm.lifetime.end.p0(i64 16, ptr nonnull %13) #15
  call void @llvm.lifetime.end.p0(i64 48, ptr nonnull %12) #15
  ret i32 %.029
}